; Function Attrs: null_pointer_is_valid sspstrong uwtable
define internal range(i32 0, 2) i32 @afpstat_packet(ptr noundef readonly captures(none) %0, ptr noundef %1, ptr readnone captures(none) %2, ptr noundef %3, i32 %4) #1 {
  %.not = icmp eq ptr %3, null
  br i1 %.not, label %13, label %6

6:                                                ; preds = %5
  %7 = load ptr, ptr %0, align 8
  %8 = load ptr, ptr %7, align 8
  %9 = load ptr, ptr %8, align 8
  %10 = load i8, ptr %3, align 8
  %11 = zext i8 %10 to i32
  %12 = getelementptr inbounds nuw i8, ptr %3, i64 16
  tail call void @add_srt_table_data(ptr noundef %9, i32 noundef %11, ptr noundef nonnull %12, ptr noundef %1)
  br label %13

13:                                               ; preds = %5, %6
  %.0 = phi i32 [ 1, %6 ], [ 0, %5 ]
  ret i32 %.0
}